target datalayout = "e-m:e-p270:32:32-p271:32:32-p272:64:64-i64:64-i128:128-f80:128-n8:16:32:64-S128"
target triple = "x86_64-pc-linux-gnu"

%struct._object = type { %union.anon, ptr }
%union.anon = type { i64 }
%struct._longobject = type { %struct._object, %struct._PyLongValue }
%struct._PyLongValue = type { i64, [1 x i32] }

@.str.80 = private unnamed_addr constant [39 x i8] c"../cpython/Modules/_testinternalcapi.c\00", align 1
@_Py_TrueStruct = external global %struct._longobject, align 8
@_Py_FalseStruct = external global %struct._longobject, align 8
@PyExc_InterpreterNotFoundError = external global ptr, align 8
@.str.251 = private unnamed_addr constant [17 x i8] c"PyErr_Occurred()\00", align 1
@__PRETTY_FUNCTION__.interpreter_exists = private unnamed_addr constant [53 x i8] c"PyObject *interpreter_exists(PyObject *, PyObject *)\00", align 1

; Function Attrs: nounwind uwtable
define internal ptr @interpreter_exists(ptr noundef %0, ptr noundef %1) #0 {
  %3 = alloca ptr, align 8
  %4 = alloca ptr, align 8
  %5 = alloca ptr, align 8
  %6 = alloca ptr, align 8
  %7 = alloca i32, align 4
  store ptr %0, ptr %4, align 8, !tbaa !3
  store ptr %1, ptr %5, align 8, !tbaa !3
  call void @llvm.lifetime.start.p0(i64 8, ptr %6) #10
  %8 = load ptr, ptr %5, align 8, !tbaa !3
  %9 = call ptr @_PyInterpreterState_LookUpIDObject(ptr noundef %8)
  store ptr %9, ptr %6, align 8, !tbaa !49
  %10 = load ptr, ptr %6, align 8, !tbaa !49
  %11 = icmp eq ptr %10, null
  br i1 %11, label %12, label %24

12:                                               ; preds = %2
  %13 = load ptr, ptr @PyExc_InterpreterNotFoundError, align 8, !tbaa !3
  %14 = call i32 @PyErr_ExceptionMatches(ptr noundef %13)
  %15 = icmp ne i32 %14, 0
  br i1 %15, label %16, label %17

16:                                               ; preds = %12
  call void @PyErr_Clear()
  store ptr @_Py_FalseStruct, ptr %3, align 8
  store i32 1, ptr %7, align 4
  br label %25

17:                                               ; preds = %12
  %18 = call ptr @PyErr_Occurred()
  %19 = icmp ne ptr %18, null
  br i1 %19, label %20, label %21

20:                                               ; preds = %17
  br label %23

21:                                               ; preds = %17
  call void @__assert_fail(ptr noundef @.str.251, ptr noundef @.str.80, i32 noundef 1626, ptr noundef @__PRETTY_FUNCTION__.interpreter_exists) #11
  unreachable

22:                                               ; No predecessors!
  br label %23

23:                                               ; preds = %22, %20
  store ptr null, ptr %3, align 8
  store i32 1, ptr %7, align 4
  br label %25

24:                                               ; preds = %2
  store ptr @_Py_TrueStruct, ptr %3, align 8
  store i32 1, ptr %7, align 4
  br label %25

25:                                               ; preds = %24, %23, %16
  call void @llvm.lifetime.end.p0(i64 8, ptr %6) #10
  %26 = load ptr, ptr %3, align 8
  ret ptr %26
}