; Function Attrs: nounwind uwtable
define internal noundef ptr @interpreter_exists(ptr readnone captures(none) %0, ptr noundef %1) #0 {
  %3 = tail call ptr @_PyInterpreterState_LookUpIDObject(ptr noundef %1) #11
  %4 = icmp eq ptr %3, null
  br i1 %4, label %5, label %12

5:                                                ; preds = %2
  %6 = load ptr, ptr @PyExc_InterpreterNotFoundError, align 8, !tbaa !9
  %7 = tail call i32 @PyErr_ExceptionMatches(ptr noundef %6) #11
  %.not = icmp eq i32 %7, 0
  br i1 %.not, label %9, label %8

8:                                                ; preds = %5
  tail call void @PyErr_Clear() #11
  br label %12

9:                                                ; preds = %5
  %10 = tail call ptr @PyErr_Occurred() #11
  %.not3 = icmp eq ptr %10, null
  br i1 %.not3, label %11, label %12

11:                                               ; preds = %9
  tail call void @__assert_fail(ptr noundef nonnull @.str.251, ptr noundef nonnull @.str.80, i32 noundef 1626, ptr noundef nonnull @__PRETTY_FUNCTION__.interpreter_exists) #12
  unreachable

12:                                               ; preds = %2, %9, %8
  %.0 = phi ptr [ @_Py_FalseStruct, %8 ], [ null, %9 ], [ @_Py_TrueStruct, %2 ]
  ret ptr %.0
}